; Function Attrs: mustprogress uwtable
define noundef double @_ZNK8QuantLib13HestonProcess4timeERKNS_4DateE(ptr noundef nonnull align 8 dereferenceable(220) %this, ptr noundef nonnull align 8 dereferenceable(8) %d) unnamed_addr #7 align 2 personality ptr @__gxx_personality_v0 {
entry:
  %ref.tmp = alloca %"class.QuantLib::DayCounter", align 8
  %ref.tmp11 = alloca %"class.QuantLib::Date", align 8
  %ref.tmp14 = alloca %"class.QuantLib::Date", align 8
  call void @llvm.lifetime.start.p0(i64 16, ptr nonnull %ref.tmp) #34
  %riskFreeRate_ = getelementptr inbounds nuw i8, ptr %this, i64 128
  %call = tail call noundef nonnull align 8 dereferenceable(16) ptr @_ZNK8QuantLib6HandleINS_18YieldTermStructureEEptEv(ptr noundef nonnull align 8 dereferenceable(16) %riskFreeRate_)
  %0 = load ptr, ptr %call, align 8, !tbaa !89
  %cmp.not.i = icmp eq ptr %0, null
  br i1 %cmp.not.i, label %cond.false.i, label %_ZNK5boost10shared_ptrIN8QuantLib18YieldTermStructureEEptEv.exit, !prof !84

cond.false.i:                                     ; preds = %entry
  tail call void @_ZN5boost16assertion_failedEPKcS1_S1_l(ptr noundef nonnull @.str.15, ptr noundef nonnull @__PRETTY_FUNCTION__._ZNK5boost10shared_ptrIN8QuantLib18YieldTermStructureEEptEv, ptr noundef nonnull @.str.16, i64 noundef 784)
  %.pre.i = load ptr, ptr %call, align 8, !tbaa !89
  br label %_ZNK5boost10shared_ptrIN8QuantLib18YieldTermStructureEEptEv.exit

_ZNK5boost10shared_ptrIN8QuantLib18YieldTermStructureEEptEv.exit: ; preds = %entry, %cond.false.i
  %1 = phi ptr [ %0, %entry ], [ %.pre.i, %cond.false.i ]
  %vtable = load ptr, ptr %1, align 8, !tbaa !35
  %vfn = getelementptr inbounds i8, ptr %vtable, i64 16
  %2 = load ptr, ptr %vfn, align 8
  call void %2(ptr dead_on_unwind nonnull writable sret(%"class.QuantLib::DayCounter") align 8 %ref.tmp, ptr noundef nonnull align 8 dereferenceable(64) %1)
  %call4 = invoke noundef nonnull align 8 dereferenceable(16) ptr @_ZNK8QuantLib6HandleINS_18YieldTermStructureEEptEv(ptr noundef nonnull align 8 dereferenceable(16) %riskFreeRate_)
          to label %invoke.cont unwind label %lpad

invoke.cont:                                      ; preds = %_ZNK5boost10shared_ptrIN8QuantLib18YieldTermStructureEEptEv.exit
  %3 = load ptr, ptr %call4, align 8, !tbaa !89
  %cmp.not.i3 = icmp eq ptr %3, null
  br i1 %cmp.not.i3, label %cond.false.i4, label %invoke.cont5, !prof !84

cond.false.i4:                                    ; preds = %invoke.cont
  invoke void @_ZN5boost16assertion_failedEPKcS1_S1_l(ptr noundef nonnull @.str.15, ptr noundef nonnull @__PRETTY_FUNCTION__._ZNK5boost10shared_ptrIN8QuantLib18YieldTermStructureEEptEv, ptr noundef nonnull @.str.16, i64 noundef 784)
          to label %.noexc unwind label %lpad

.noexc:                                           ; preds = %cond.false.i4
  %.pre.i5 = load ptr, ptr %call4, align 8, !tbaa !89
  br label %invoke.cont5

invoke.cont5:                                     ; preds = %.noexc, %invoke.cont
  %4 = phi ptr [ %3, %invoke.cont ], [ %.pre.i5, %.noexc ]
  %vtable7 = load ptr, ptr %4, align 8, !tbaa !35
  %vfn8 = getelementptr inbounds i8, ptr %vtable7, i64 40
  %5 = load ptr, ptr %vfn8, align 8
  %call10 = invoke noundef nonnull align 8 dereferenceable(8) ptr %5(ptr noundef nonnull align 8 dereferenceable(64) %4)
          to label %invoke.cont9 unwind label %lpad

invoke.cont9:                                     ; preds = %invoke.cont5
  call void @llvm.lifetime.start.p0(i64 8, ptr nonnull %ref.tmp11) #34
  invoke void @_ZN8QuantLib4DateC1Ev(ptr noundef nonnull align 8 dereferenceable(8) %ref.tmp11)
          to label %invoke.cont13 unwind label %lpad12

invoke.cont13:                                    ; preds = %invoke.cont9
  call void @llvm.lifetime.start.p0(i64 8, ptr nonnull %ref.tmp14) #34
  invoke void @_ZN8QuantLib4DateC1Ev(ptr noundef nonnull align 8 dereferenceable(8) %ref.tmp14)
          to label %invoke.cont16 unwind label %lpad15

invoke.cont16:                                    ; preds = %invoke.cont13
  %call18 = invoke noundef double @_ZNK8QuantLib10DayCounter12yearFractionERKNS_4DateES3_S3_S3_(ptr noundef nonnull align 8 dereferenceable(16) %ref.tmp, ptr noundef nonnull align 8 dereferenceable(8) %call10, ptr noundef nonnull align 8 dereferenceable(8) %d, ptr noundef nonnull align 8 dereferenceable(8) %ref.tmp11, ptr noundef nonnull align 8 dereferenceable(8) %ref.tmp14)
          to label %invoke.cont17 unwind label %lpad15

invoke.cont17:                                    ; preds = %invoke.cont16
  call void @llvm.lifetime.end.p0(i64 8, ptr nonnull %ref.tmp14) #34
  call void @llvm.lifetime.end.p0(i64 8, ptr nonnull %ref.tmp11) #34
  %pn.i.i = getelementptr inbounds nuw i8, ptr %ref.tmp, i64 8
  %6 = load ptr, ptr %pn.i.i, align 8, !tbaa !37
  %cmp.not.i.i.i = icmp eq ptr %6, null
  br i1 %cmp.not.i.i.i, label %_ZN8QuantLib10DayCounterD2Ev.exit, label %if.then.i.i.i

if.then.i.i.i:                                    ; preds = %invoke.cont17
  %use_count_.i.i.i.i = getelementptr inbounds nuw i8, ptr %6, i64 8
  %7 = atomicrmw sub ptr %use_count_.i.i.i.i, i32 1 acq_rel, align 4
  %cmp.i.i.i.i = icmp eq i32 %7, 1
  br i1 %cmp.i.i.i.i, label %if.then.i.i.i.i, label %_ZN8QuantLib10DayCounterD2Ev.exit

if.then.i.i.i.i:                                  ; preds = %if.then.i.i.i
  %vtable.i.i.i.i = load ptr, ptr %6, align 8, !tbaa !35
  %vfn.i.i.i.i = getelementptr inbounds i8, ptr %vtable.i.i.i.i, i64 16
  %8 = load ptr, ptr %vfn.i.i.i.i, align 8
  invoke void %8(ptr noundef nonnull align 8 dereferenceable(16) %6)
          to label %.noexc.i.i.i unwind label %terminate.lpad.i.i.i

.noexc.i.i.i:                                     ; preds = %if.then.i.i.i.i
  %weak_count_.i.i.i.i.i = getelementptr inbounds nuw i8, ptr %6, i64 12
  %9 = atomicrmw sub ptr %weak_count_.i.i.i.i.i, i32 1 acq_rel, align 4
  %cmp.i.i.i.i.i = icmp eq i32 %9, 1
  br i1 %cmp.i.i.i.i.i, label %if.then.i.i.i.i.i, label %_ZN8QuantLib10DayCounterD2Ev.exit

if.then.i.i.i.i.i:                                ; preds = %.noexc.i.i.i
  %vtable.i.i.i.i.i = load ptr, ptr %6, align 8, !tbaa !35
  %vfn.i.i.i.i.i = getelementptr inbounds i8, ptr %vtable.i.i.i.i.i, i64 24
  %10 = load ptr, ptr %vfn.i.i.i.i.i, align 8
  invoke void %10(ptr noundef nonnull align 8 dereferenceable(16) %6)
          to label %_ZN8QuantLib10DayCounterD2Ev.exit unwind label %terminate.lpad.i.i.i

terminate.lpad.i.i.i:                             ; preds = %if.then.i.i.i.i.i, %if.then.i.i.i.i
  %11 = landingpad { ptr, i32 }
          catch ptr null
  %12 = extractvalue { ptr, i32 } %11, 0
  call void @__clang_call_terminate(ptr %12) #35
  unreachable

_ZN8QuantLib10DayCounterD2Ev.exit:                ; preds = %invoke.cont17, %if.then.i.i.i, %.noexc.i.i.i, %if.then.i.i.i.i.i
  call void @llvm.lifetime.end.p0(i64 16, ptr nonnull %ref.tmp) #34
  ret double %call18

lpad:                                             ; preds = %cond.false.i4, %invoke.cont5, %_ZNK5boost10shared_ptrIN8QuantLib18YieldTermStructureEEptEv.exit
  %13 = landingpad { ptr, i32 }
          cleanup
  br label %ehcleanup19

lpad12:                                           ; preds = %invoke.cont9
  %14 = landingpad { ptr, i32 }
          cleanup
  br label %ehcleanup

lpad15:                                           ; preds = %invoke.cont16, %invoke.cont13
  %15 = landingpad { ptr, i32 }
          cleanup
  call void @llvm.lifetime.end.p0(i64 8, ptr nonnull %ref.tmp14) #34
  br label %ehcleanup

ehcleanup:                                        ; preds = %lpad15, %lpad12
  %.pn = phi { ptr, i32 } [ %15, %lpad15 ], [ %14, %lpad12 ]
  call void @llvm.lifetime.end.p0(i64 8, ptr nonnull %ref.tmp11) #34
  br label %ehcleanup19

ehcleanup19:                                      ; preds = %ehcleanup, %lpad
  %.pn.pn = phi { ptr, i32 } [ %.pn, %ehcleanup ], [ %13, %lpad ]
  call void @_ZN8QuantLib10DayCounterD2Ev(ptr noundef nonnull align 8 dereferenceable(16) %ref.tmp) #34
  call void @llvm.lifetime.end.p0(i64 16, ptr nonnull %ref.tmp) #34
  resume { ptr, i32 } %.pn.pn
}